target datalayout = "e-m:e-p270:32:32-p271:32:32-p272:64:64-i64:64-i128:128-f80:128-n8:16:32:64-S128"
target triple = "x86_64-pc-linux-gnu"

%struct.psa_pake_cipher_suite_s = type { i32, i8, i8, i16, i32 }
%struct.mbedtls_psa_pake_operation_t = type { i32, ptr, i64, i32, [336 x i8], i64, i64, %union.anon }
%union.anon = type { %struct.mbedtls_ecjpake_context }
%struct.mbedtls_ecjpake_context = type { i32, %struct.mbedtls_ecp_group, i32, i32, %struct.mbedtls_ecp_point, %struct.mbedtls_ecp_point, %struct.mbedtls_ecp_point, %struct.mbedtls_ecp_point, %struct.mbedtls_ecp_point, %struct.mbedtls_mpi, %struct.mbedtls_mpi, %struct.mbedtls_mpi }
%struct.mbedtls_ecp_group = type { i32, %struct.mbedtls_mpi, %struct.mbedtls_mpi, %struct.mbedtls_mpi, %struct.mbedtls_ecp_point, %struct.mbedtls_mpi, i64, i64, i32, ptr, ptr, ptr, ptr, ptr, i64 }
%struct.mbedtls_ecp_point = type { %struct.mbedtls_mpi, %struct.mbedtls_mpi, %struct.mbedtls_mpi }
%struct.mbedtls_mpi = type { ptr, i16, i16 }

@jpake_client_id = internal constant [6 x i8] c"client", align 1
@jpake_server_id = internal constant [6 x i8] c"server", align 1

; Function Attrs: inlinehint nounwind uwtable
define internal { i64, i32 } @psa_pake_cipher_suite_init() #2 {
  %1 = alloca %struct.psa_pake_cipher_suite_s, align 4
  %2 = alloca { i64, i32 }, align 8
  call void @llvm.memset.p0.i64(ptr align 4 %1, i8 0, i64 12, i1 false)
  call void @llvm.memcpy.p0.p0.i64(ptr align 8 %2, ptr align 4 %1, i64 12, i1 false)
  %3 = load { i64, i32 }, ptr %2, align 8
  ret { i64, i32 } %3
}

; Function Attrs: nounwind uwtable
define hidden i32 @mbedtls_psa_pake_setup(ptr noundef %0, ptr noundef %1) #0 {
  %3 = alloca i32, align 4
  %4 = alloca ptr, align 8
  %5 = alloca ptr, align 8
  %6 = alloca i32, align 4
  %7 = alloca i64, align 8
  %8 = alloca i64, align 8
  %9 = alloca i64, align 8
  %10 = alloca ptr, align 8
  %11 = alloca ptr, align 8
  %12 = alloca i64, align 8
  %13 = alloca i64, align 8
  %14 = alloca i64, align 8
  %15 = alloca %struct.psa_pake_cipher_suite_s, align 4
  %16 = alloca { i64, i32 }, align 8
  %17 = alloca i32, align 4
  %18 = alloca i64, align 8
  store ptr %0, ptr %4, align 8, !tbaa !3
  store ptr %1, ptr %5, align 8, !tbaa !7
  call void @llvm.lifetime.start.p0(i64 4, ptr %6) #9
  store i32 -151, ptr %6, align 4, !tbaa !9
  call void @llvm.lifetime.start.p0(i64 8, ptr %7) #9
  store i64 0, ptr %7, align 8, !tbaa !11
  call void @llvm.lifetime.start.p0(i64 8, ptr %8) #9
  store i64 0, ptr %8, align 8, !tbaa !11
  call void @llvm.lifetime.start.p0(i64 8, ptr %9) #9
  store i64 0, ptr %9, align 8, !tbaa !11
  call void @llvm.lifetime.start.p0(i64 8, ptr %10) #9
  store ptr null, ptr %10, align 8, !tbaa !13
  call void @llvm.lifetime.start.p0(i64 8, ptr %11) #9
  store ptr null, ptr %11, align 8, !tbaa !13
  call void @llvm.lifetime.start.p0(i64 8, ptr %12) #9
  store i64 0, ptr %12, align 8, !tbaa !11
  call void @llvm.lifetime.start.p0(i64 8, ptr %13) #9
  store i64 0, ptr %13, align 8, !tbaa !11
  call void @llvm.lifetime.start.p0(i64 8, ptr %14) #9
  store i64 0, ptr %14, align 8, !tbaa !11
  call void @llvm.lifetime.start.p0(i64 12, ptr %15) #9
  %19 = call { i64, i32 } @psa_pake_cipher_suite_init()
  store { i64, i32 } %19, ptr %16, align 8
  call void @llvm.memcpy.p0.p0.i64(ptr align 4 %15, ptr align 8 %16, i64 12, i1 false)
  %20 = load ptr, ptr %5, align 8, !tbaa !7
  %21 = call i32 @psa_crypto_driver_pake_get_password_len(ptr noundef %20, ptr noundef %9)
  store i32 %21, ptr %6, align 4, !tbaa !9
  %22 = load i32, ptr %6, align 4, !tbaa !9
  %23 = icmp ne i32 %22, 0
  br i1 %23, label %24, label %26

24:                                               ; preds = %2
  %25 = load i32, ptr %6, align 4, !tbaa !9
  store i32 %25, ptr %3, align 4
  store i32 1, ptr %17, align 4
  br label %184

26:                                               ; preds = %2
  %27 = load ptr, ptr %5, align 8, !tbaa !7
  %28 = call i32 @psa_crypto_driver_pake_get_user_len(ptr noundef %27, ptr noundef %7)
  store i32 %28, ptr %6, align 4, !tbaa !9
  %29 = load i32, ptr %6, align 4, !tbaa !9
  %30 = icmp ne i32 %29, 0
  br i1 %30, label %31, label %33

31:                                               ; preds = %26
  %32 = load i32, ptr %6, align 4, !tbaa !9
  store i32 %32, ptr %3, align 4
  store i32 1, ptr %17, align 4
  br label %184

33:                                               ; preds = %26
  %34 = load ptr, ptr %5, align 8, !tbaa !7
  %35 = call i32 @psa_crypto_driver_pake_get_peer_len(ptr noundef %34, ptr noundef %8)
  store i32 %35, ptr %6, align 4, !tbaa !9
  %36 = load i32, ptr %6, align 4, !tbaa !9
  %37 = icmp ne i32 %36, 0
  br i1 %37, label %38, label %40

38:                                               ; preds = %33
  %39 = load i32, ptr %6, align 4, !tbaa !9
  store i32 %39, ptr %3, align 4
  store i32 1, ptr %17, align 4
  br label %184

40:                                               ; preds = %33
  %41 = load ptr, ptr %5, align 8, !tbaa !7
  %42 = call i32 @psa_crypto_driver_pake_get_cipher_suite(ptr noundef %41, ptr noundef %15)
  store i32 %42, ptr %6, align 4, !tbaa !9
  %43 = load i32, ptr %6, align 4, !tbaa !9
  %44 = icmp ne i32 %43, 0
  br i1 %44, label %45, label %47

45:                                               ; preds = %40
  %46 = load i32, ptr %6, align 4, !tbaa !9
  store i32 %46, ptr %3, align 4
  store i32 1, ptr %17, align 4
  br label %184

47:                                               ; preds = %40
  %48 = load i64, ptr %9, align 8, !tbaa !11
  %49 = call noalias ptr @calloc(i64 noundef 1, i64 noundef %48) #10
  %50 = load ptr, ptr %4, align 8, !tbaa !3
  %51 = getelementptr inbounds nuw %struct.mbedtls_psa_pake_operation_t, ptr %50, i32 0, i32 1
  store ptr %49, ptr %51, align 8, !tbaa !15
  %52 = load ptr, ptr %4, align 8, !tbaa !3
  %53 = getelementptr inbounds nuw %struct.mbedtls_psa_pake_operation_t, ptr %52, i32 0, i32 1
  %54 = load ptr, ptr %53, align 8, !tbaa !15
  %55 = icmp eq ptr %54, null
  br i1 %55, label %56, label %57

56:                                               ; preds = %47
  store i32 -141, ptr %6, align 4, !tbaa !9
  br label %178

57:                                               ; preds = %47
  %58 = load i64, ptr %7, align 8, !tbaa !11
  %59 = call noalias ptr @calloc(i64 noundef 1, i64 noundef %58) #10
  store ptr %59, ptr %11, align 8, !tbaa !13
  %60 = load ptr, ptr %11, align 8, !tbaa !13
  %61 = icmp eq ptr %60, null
  br i1 %61, label %62, label %63

62:                                               ; preds = %57
  store i32 -141, ptr %6, align 4, !tbaa !9
  br label %178

63:                                               ; preds = %57
  %64 = load i64, ptr %8, align 8, !tbaa !11
  %65 = call noalias ptr @calloc(i64 noundef 1, i64 noundef %64) #10
  store ptr %65, ptr %10, align 8, !tbaa !13
  %66 = load ptr, ptr %10, align 8, !tbaa !13
  %67 = icmp eq ptr %66, null
  br i1 %67, label %68, label %69

68:                                               ; preds = %63
  store i32 -141, ptr %6, align 4, !tbaa !9
  br label %178

69:                                               ; preds = %63
  %70 = load ptr, ptr %5, align 8, !tbaa !7
  %71 = load ptr, ptr %4, align 8, !tbaa !3
  %72 = getelementptr inbounds nuw %struct.mbedtls_psa_pake_operation_t, ptr %71, i32 0, i32 1
  %73 = load ptr, ptr %72, align 8, !tbaa !15
  %74 = load i64, ptr %9, align 8, !tbaa !11
  %75 = call i32 @psa_crypto_driver_pake_get_password(ptr noundef %70, ptr noundef %73, i64 noundef %74, ptr noundef %14)
  store i32 %75, ptr %6, align 4, !tbaa !9
  %76 = load i32, ptr %6, align 4, !tbaa !9
  %77 = icmp ne i32 %76, 0
  br i1 %77, label %78, label %79

78:                                               ; preds = %69
  br label %178

79:                                               ; preds = %69
  %80 = load ptr, ptr %5, align 8, !tbaa !7
  %81 = load ptr, ptr %11, align 8, !tbaa !13
  %82 = load i64, ptr %7, align 8, !tbaa !11
  %83 = call i32 @psa_crypto_driver_pake_get_user(ptr noundef %80, ptr noundef %81, i64 noundef %82, ptr noundef %12)
  store i32 %83, ptr %6, align 4, !tbaa !9
  %84 = load i32, ptr %6, align 4, !tbaa !9
  %85 = icmp ne i32 %84, 0
  br i1 %85, label %86, label %87

86:                                               ; preds = %79
  br label %178

87:                                               ; preds = %79
  %88 = load ptr, ptr %5, align 8, !tbaa !7
  %89 = load ptr, ptr %10, align 8, !tbaa !13
  %90 = load i64, ptr %8, align 8, !tbaa !11
  %91 = call i32 @psa_crypto_driver_pake_get_peer(ptr noundef %88, ptr noundef %89, i64 noundef %90, ptr noundef %13)
  store i32 %91, ptr %6, align 4, !tbaa !9
  %92 = load i32, ptr %6, align 4, !tbaa !9
  %93 = icmp ne i32 %92, 0
  br i1 %93, label %94, label %95

94:                                               ; preds = %87
  br label %178

95:                                               ; preds = %87
  %96 = load i64, ptr %14, align 8, !tbaa !11
  %97 = load ptr, ptr %4, align 8, !tbaa !3
  %98 = getelementptr inbounds nuw %struct.mbedtls_psa_pake_operation_t, ptr %97, i32 0, i32 2
  store i64 %96, ptr %98, align 8, !tbaa !17
  %99 = getelementptr inbounds nuw %struct.psa_pake_cipher_suite_s, ptr %15, i32 0, i32 0
  %100 = load i32, ptr %99, align 4, !tbaa !18
  %101 = load ptr, ptr %4, align 8, !tbaa !3
  %102 = getelementptr inbounds nuw %struct.mbedtls_psa_pake_operation_t, ptr %101, i32 0, i32 0
  store i32 %100, ptr %102, align 8, !tbaa !21
  %103 = getelementptr inbounds nuw %struct.psa_pake_cipher_suite_s, ptr %15, i32 0, i32 0
  %104 = load i32, ptr %103, align 4, !tbaa !18
  %105 = icmp eq i32 %104, 167772416
  br i1 %105, label %106, label %176

106:                                              ; preds = %95
  %107 = getelementptr inbounds nuw %struct.psa_pake_cipher_suite_s, ptr %15, i32 0, i32 1
  %108 = load i8, ptr %107, align 4, !tbaa !22
  %109 = zext i8 %108 to i32
  %110 = icmp ne i32 %109, 1
  br i1 %110, label %125, label %111

111:                                              ; preds = %106
  %112 = getelementptr inbounds nuw %struct.psa_pake_cipher_suite_s, ptr %15, i32 0, i32 2
  %113 = load i8, ptr %112, align 1, !tbaa !23
  %114 = zext i8 %113 to i32
  %115 = icmp ne i32 %114, 18
  br i1 %115, label %125, label %116

116:                                              ; preds = %111
  %117 = getelementptr inbounds nuw %struct.psa_pake_cipher_suite_s, ptr %15, i32 0, i32 3
  %118 = load i16, ptr %117, align 2, !tbaa !24
  %119 = zext i16 %118 to i32
  %120 = icmp ne i32 %119, 256
  br i1 %120, label %125, label %121

121:                                              ; preds = %116
  %122 = getelementptr inbounds nuw %struct.psa_pake_cipher_suite_s, ptr %15, i32 0, i32 4
  %123 = load i32, ptr %122, align 4, !tbaa !25
  %124 = icmp ne i32 %123, 33554441
  br i1 %124, label %125, label %126

125:                                              ; preds = %121, %116, %111, %106
  store i32 -134, ptr %6, align 4, !tbaa !9
  br label %178

126:                                              ; preds = %121
  call void @llvm.lifetime.start.p0(i64 8, ptr %18) #9
  store i64 6, ptr %18, align 8, !tbaa !11
  %127 = load i64, ptr %12, align 8, !tbaa !11
  %128 = icmp ne i64 %127, 6
  br i1 %128, label %132, label %129

129:                                              ; preds = %126
  %130 = load i64, ptr %13, align 8, !tbaa !11
  %131 = icmp ne i64 %130, 6
  br i1 %131, label %132, label %133

132:                                              ; preds = %129, %126
  store i32 -134, ptr %6, align 4, !tbaa !9
  store i32 2, ptr %17, align 4
  br label %174

133:                                              ; preds = %129
  %134 = load ptr, ptr %11, align 8, !tbaa !13
  %135 = load i64, ptr %12, align 8, !tbaa !11
  %136 = call i32 @memcmp(ptr noundef %134, ptr noundef @jpake_client_id, i64 noundef %135) #11
  %137 = icmp eq i32 %136, 0
  br i1 %137, label %138, label %146

138:                                              ; preds = %133
  %139 = load ptr, ptr %10, align 8, !tbaa !13
  %140 = load i64, ptr %13, align 8, !tbaa !11
  %141 = call i32 @memcmp(ptr noundef %139, ptr noundef @jpake_server_id, i64 noundef %140) #11
  %142 = icmp eq i32 %141, 0
  br i1 %142, label %143, label %146

143:                                              ; preds = %138
  %144 = load ptr, ptr %4, align 8, !tbaa !3
  %145 = getelementptr inbounds nuw %struct.mbedtls_psa_pake_operation_t, ptr %144, i32 0, i32 3
  store i32 0, ptr %145, align 8, !tbaa !26
  br label %161

146:                                              ; preds = %138, %133
  %147 = load ptr, ptr %11, align 8, !tbaa !13
  %148 = load i64, ptr %12, align 8, !tbaa !11
  %149 = call i32 @memcmp(ptr noundef %147, ptr noundef @jpake_server_id, i64 noundef %148) #11
  %150 = icmp eq i32 %149, 0
  br i1 %150, label %151, label %159

151:                                              ; preds = %146
  %152 = load ptr, ptr %10, align 8, !tbaa !13
  %153 = load i64, ptr %13, align 8, !tbaa !11
  %154 = call i32 @memcmp(ptr noundef %152, ptr noundef @jpake_client_id, i64 noundef %153) #11
  %155 = icmp eq i32 %154, 0
  br i1 %155, label %156, label %159

156:                                              ; preds = %151
  %157 = load ptr, ptr %4, align 8, !tbaa !3
  %158 = getelementptr inbounds nuw %struct.mbedtls_psa_pake_operation_t, ptr %157, i32 0, i32 3
  store i32 1, ptr %158, align 8, !tbaa !26
  br label %160

159:                                              ; preds = %151, %146
  store i32 -134, ptr %6, align 4, !tbaa !9
  store i32 2, ptr %17, align 4
  br label %174

160:                                              ; preds = %156
  br label %161

161:                                              ; preds = %160, %143
  %162 = load ptr, ptr %4, align 8, !tbaa !3
  %163 = getelementptr inbounds nuw %struct.mbedtls_psa_pake_operation_t, ptr %162, i32 0, i32 5
  store i64 0, ptr %163, align 8, !tbaa !27
  %164 = load ptr, ptr %4, align 8, !tbaa !3
  %165 = getelementptr inbounds nuw %struct.mbedtls_psa_pake_operation_t, ptr %164, i32 0, i32 6
  store i64 0, ptr %165, align 8, !tbaa !28
  %166 = load ptr, ptr %4, align 8, !tbaa !3
  %167 = call i32 @psa_pake_ecjpake_setup(ptr noundef %166)
  store i32 %167, ptr %6, align 4, !tbaa !9
  %168 = load i32, ptr %6, align 4, !tbaa !9
  %169 = icmp ne i32 %168, 0
  br i1 %169, label %170, label %171

170:                                              ; preds = %161
  store i32 2, ptr %17, align 4
  br label %174

171:                                              ; preds = %161
  %172 = load ptr, ptr %11, align 8, !tbaa !13
  call void @free(ptr noundef %172) #9
  %173 = load ptr, ptr %10, align 8, !tbaa !13
  call void @free(ptr noundef %173) #9
  store i32 0, ptr %3, align 4
  store i32 1, ptr %17, align 4
  br label %174

174:                                              ; preds = %170, %159, %132, %171
  call void @llvm.lifetime.end.p0(i64 8, ptr %18) #9
  %175 = load i32, ptr %17, align 4
  switch i32 %175, label %184 [
    i32 2, label %178
  ]

176:                                              ; preds = %95
  store i32 -134, ptr %6, align 4, !tbaa !9
  br label %177

177:                                              ; preds = %176
  br label %178

178:                                              ; preds = %177, %174, %125, %94, %86, %78, %68, %62, %56
  %179 = load ptr, ptr %11, align 8, !tbaa !13
  call void @free(ptr noundef %179) #9
  %180 = load ptr, ptr %10, align 8, !tbaa !13
  call void @free(ptr noundef %180) #9
  %181 = load ptr, ptr %4, align 8, !tbaa !3
  %182 = call i32 @mbedtls_psa_pake_abort(ptr noundef %181)
  %183 = load i32, ptr %6, align 4, !tbaa !9
  store i32 %183, ptr %3, align 4
  store i32 1, ptr %17, align 4
  br label %184

184:                                              ; preds = %178, %174, %45, %38, %31, %24
  call void @llvm.lifetime.end.p0(i64 12, ptr %15) #9
  call void @llvm.lifetime.end.p0(i64 8, ptr %14) #9
  call void @llvm.lifetime.end.p0(i64 8, ptr %13) #9
  call void @llvm.lifetime.end.p0(i64 8, ptr %12) #9
  call void @llvm.lifetime.end.p0(i64 8, ptr %11) #9
  call void @llvm.lifetime.end.p0(i64 8, ptr %10) #9
  call void @llvm.lifetime.end.p0(i64 8, ptr %9) #9
  call void @llvm.lifetime.end.p0(i64 8, ptr %8) #9
  call void @llvm.lifetime.end.p0(i64 8, ptr %7) #9
  call void @llvm.lifetime.end.p0(i64 4, ptr %6) #9
  %185 = load i32, ptr %3, align 4
  ret i32 %185
}